ASxxxx Linker V03.00 + NoICE + sdld,  page 1.
Hexadecimal  [32-Bits]

Area                                    Addr        Size        Decimal Bytes (Attributes)
--------------------------------        ----        ----        ------- ----- ------------
IABS3                               00000000    00000001 =           1. bytes (ABS,CON)

      Value  Global                              Global Defined In Module
      -----  --------------------------------   ------------------------
     00000000  l_CABS                          
     00000000  l_GSINIT1                       
     00000000  l_GSINIT5                       
     00000000  l_IABS                          
     00000000  l_ISEG                          
     00000000  l_PSEG                          
     00000000  l_REG_BANK_2                    
     00000000  l_REG_BANK_3                    
     00000000  l_RSEG                          
     00000000  l_RSEG0                         
     00000000  l_RSEG1                         
     00000000  l_XABS                          
     00000000  l__CODE                         
     00000000  s_BSEG                          
     00000000  s_CABS                          
     00000000  s_DSEG                          
     00000000  s_HOME                          
     00000000  s_IABS                          
     00000000  s_IABS2                         
     00000000  s_IABS3                         
     00000000  s_ISEG                          
     00000000  s_REG_BANK_0                    
     00000000  s_RSEG                          
     00000000  s_RSEG0                         
     00000000  s_RSEG1                         
     00000000  s_XABS                          
     00000001  l_BIT_BANK                      
     00000001  l_BSEG_BYTES                    
     00000001  l_IABS3                         
     00000003  l_GSINIT0                       
     00000004  l_GSFINAL                       
     00000004  l_IABS2                         
     00000005  l_OSEG                          
     00000008  l_BSEG                          
     00000008  l_REG_BANK_0                    
     00000008  l_REG_BANK_1                    
     00000008  s_REG_BANK_1                    
     0000000A  l_GSINIT2                       
     0000000C  _timer0_overflow_count_5th_byte    main
     00000010  s_REG_BANK_2                    
     00000014  l_GSINIT                        
     00000018  s_REG_BANK_3                    
     0000001E  l_XINIT                         
     0000001E  l_XISEG                         
     00000020  s_BSEG_BYTES                    
     00000020  s__CODE                         
     00000021  s_BIT_BANK                      
     00000022  l_GSINIT3                       
     0000002A  l_GSINIT4                       
     00000034  s_OSEG                          
ASxxxx Linker V03.00 + NoICE + sdld,  page 2.
Hexadecimal  [32-Bits]

Area                                    Addr        Size        Decimal Bytes (Attributes)
--------------------------------        ----        ----        ------- ----- ------------
IABS3                               00000000    00000001 =           1. bytes (ABS,CON)

      Value  Global                              Global Defined In Module
      -----  --------------------------------   ------------------------
     00000039  s_SSEG                          
     0000006B  l_HOME                          
     0000006B  s_GSINIT0                       
     0000006E  s_GSINIT1                       
     0000006E  s_GSINIT2                       
     00000078  s_GSINIT3                       
     00000080  l_DSEG                          
     0000009A  s_GSINIT4                       
     000000C4  s_GSINIT                        
     000000C4  s_GSINIT5                       
     000000C7  l_SSEG                          
     000000D8  s_GSFINAL                       
     000000DC  s_CSEG                          
     00000100  l_IRAM                          
     0000010A  s_PSEG                          
     0000010A  s_XSEG                          
     00000115  l_XSEG                          
     0000021F  s_XISEG                         
     00000A1A  l_CONST                         
     0000240B  l_CSEG                          
     000024E7  s_CONST                         
     00002F01  s_XINIT                         
ASxxxx Linker V03.00 + NoICE + sdld,  page 3.
Hexadecimal  [32-Bits]

Area                                    Addr        Size        Decimal Bytes (Attributes)
--------------------------------        ----        ----        ------- ----- ------------
IABS2                               00000000    00000004 =           4. bytes (ABS,CON)

      Value  Global                              Global Defined In Module
      -----  --------------------------------   ------------------------
     00000008  _timer0_overflow_count             main

ASxxxx Linker V03.00 + NoICE + sdld,  page 4.
Hexadecimal  [32-Bits]

Area                                    Addr        Size        Decimal Bytes (Attributes)
--------------------------------        ----        ----        ------- ----- ------------
.  .ABS.                            00000000    00000000 =           0. bytes (ABS,CON)

      Value  Global                              Global Defined In Module
      -----  --------------------------------   ------------------------
     00000000  .__.ABS.                           _startup
     00000000  _Ep0Buffer                         USBhandler
     0000000A  _Ep1Buffer                         USBhandler
     00000014  _Ep2Buffer                         USBhandler
     00000054  _Ep3Buffer                         USBhandler
     00000080  _ADC_CHAN0                         HardwareSerial0ISR
     00000080  _ADC_CTRL                          HardwareSerial0ISR
     00000081  _ADC_CHAN1                         HardwareSerial0ISR
     00000081  _SP                                HardwareSerial0ISR
     00000082  _DPL                               HardwareSerial0ISR
     00000083  _CMP_CHAN                          HardwareSerial0ISR
     00000083  _DPH                               HardwareSerial0ISR
     00000084  _ADC_START                         HardwareSerial0ISR
     00000084  _ROM_ADDR_L                        HardwareSerial0ISR
     00000085  _ADC_IF                            HardwareSerial0ISR
     00000085  _ROM_ADDR_H                        HardwareSerial0ISR
     00000086  _CMP_IF                            HardwareSerial0ISR
     00000086  _ROM_CTRL                          HardwareSerial0ISR
     00000087  _CMPO                              HardwareSerial0ISR
     00000087  _PCON                              HardwareSerial0ISR
     00000088  _IT0                               HardwareSerial0ISR
     00000088  _TCON                              HardwareSerial0ISR
     00000089  _IE0                               HardwareSerial0ISR
     00000089  _TMOD                              HardwareSerial0ISR
     0000008A  _IT1                               HardwareSerial0ISR
     0000008A  _TL0                               HardwareSerial0ISR
     0000008B  _IE1                               HardwareSerial0ISR
     0000008B  _TL1                               HardwareSerial0ISR
     0000008C  _TH0                               HardwareSerial0ISR
     0000008C  _TR0                               HardwareSerial0ISR
     0000008D  _TF0                               HardwareSerial0ISR
     0000008D  _TH1                               HardwareSerial0ISR
     0000008E  _ROM_DATA_L                        HardwareSerial0ISR
     0000008E  _TR1                               HardwareSerial0ISR
     0000008F  _ROM_DATA_H                        HardwareSerial0ISR
     0000008F  _TF1                               HardwareSerial0ISR
     00000090  _CAP1                              HardwareSerial0ISR
     00000090  _P1                                HardwareSerial0ISR
     00000090  _P1_0                              HardwareSerial0ISR
     00000090  _T2                                HardwareSerial0ISR
     00000090  _TIN0                              HardwareSerial0ISR
     00000091  _AIN0                              HardwareSerial0ISR
     00000091  _CAP2                              HardwareSerial0ISR
     00000091  _P1_1                              HardwareSerial0ISR
     00000091  _T2EX                              HardwareSerial0ISR
     00000091  _TIN1                              HardwareSerial0ISR
     00000091  _USB_C_CTRL                        HardwareSerial0ISR
     00000091  _VBUS2                             HardwareSerial0ISR
     00000092  _P1_2                              HardwareSerial0ISR
     00000092  _P1_MOD_OC                         HardwareSerial0ISR
ASxxxx Linker V03.00 + NoICE + sdld,  page 5.
Hexadecimal  [32-Bits]

Area                                    Addr        Size        Decimal Bytes (Attributes)
--------------------------------        ----        ----        ------- ----- ------------
.  .ABS.                            00000000    00000000 =           0. bytes (ABS,CON)

      Value  Global                              Global Defined In Module
      -----  --------------------------------   ------------------------
     00000092  _RXD_                              HardwareSerial0ISR
     00000093  _P1_3                              HardwareSerial0ISR
     00000093  _P1_DIR_PU                         HardwareSerial0ISR
     00000093  _TXD_                              HardwareSerial0ISR
     00000094  _AIN1                              HardwareSerial0ISR
     00000094  _CAP1_                             HardwareSerial0ISR
     00000094  _P1_4                              HardwareSerial0ISR
     00000094  _SCS                               HardwareSerial0ISR
     00000094  _T2_                               HardwareSerial0ISR
     00000094  _TIN2                              HardwareSerial0ISR
     00000094  _UCC1                              HardwareSerial0ISR
     00000095  _AIN2                              HardwareSerial0ISR
     00000095  _MOSI                              HardwareSerial0ISR
     00000095  _P1_5                              HardwareSerial0ISR
     00000095  _PWM1                              HardwareSerial0ISR
     00000095  _TIN3                              HardwareSerial0ISR
     00000095  _UCC2                              HardwareSerial0ISR
     00000096  _MISO                              HardwareSerial0ISR
     00000096  _P1_6                              HardwareSerial0ISR
     00000096  _P3_MOD_OC                         HardwareSerial0ISR
     00000096  _RXD1                              HardwareSerial0ISR
     00000096  _TIN4                              HardwareSerial0ISR
     00000097  _P1_7                              HardwareSerial0ISR
     00000097  _P3_DIR_PU                         HardwareSerial0ISR
     00000097  _SCK                               HardwareSerial0ISR
     00000097  _TIN5                              HardwareSerial0ISR
     00000097  _TXD1                              HardwareSerial0ISR
     00000098  _RI                                HardwareSerial0ISR
     00000098  _SCON                              HardwareSerial0ISR
     00000099  _SBUF                              HardwareSerial0ISR
     00000099  _TI                                HardwareSerial0ISR
     0000009A  _ADC_CFG                           HardwareSerial0ISR
     0000009A  _RB8                               HardwareSerial0ISR
     0000009B  _PWM_DATA2                         HardwareSerial0ISR
     0000009B  _TB8                               HardwareSerial0ISR
     0000009C  _PWM_DATA1                         HardwareSerial0ISR
     0000009C  _REN                               HardwareSerial0ISR
     0000009D  _PWM_CTRL                          HardwareSerial0ISR
     0000009D  _SM2                               HardwareSerial0ISR
     0000009E  _PWM_CK_SE                         HardwareSerial0ISR
     0000009E  _SM1                               HardwareSerial0ISR
     0000009F  _ADC_DATA                          HardwareSerial0ISR
     0000009F  _SM0                               HardwareSerial0ISR
     000000A0  _P2                                HardwareSerial0ISR
     000000A0  __XPAGE                            
     000000A1  _SAFE_MOD                          HardwareSerial0ISR
     000000A2  _XBUS_AUX                          HardwareSerial0ISR
     000000A8  _EX0                               HardwareSerial0ISR
     000000A8  _IE                                HardwareSerial0ISR
     000000A9  _ET0                               HardwareSerial0ISR
     000000A9  _WAKE_CTRL                         HardwareSerial0ISR
ASxxxx Linker V03.00 + NoICE + sdld,  page 6.
Hexadecimal  [32-Bits]

Area                                    Addr        Size        Decimal Bytes (Attributes)
--------------------------------        ----        ----        ------- ----- ------------
.  .ABS.                            00000000    00000000 =           0. bytes (ABS,CON)

      Value  Global                              Global Defined In Module
      -----  --------------------------------   ------------------------
     000000AA  _EX1                               HardwareSerial0ISR
     000000AB  _ET1                               HardwareSerial0ISR
     000000AC  _ES                                HardwareSerial0ISR
     000000AD  _ET2                               HardwareSerial0ISR
     000000AE  _E_DIS                             HardwareSerial0ISR
     000000AF  _EA                                HardwareSerial0ISR
     000000B0  _P3                                HardwareSerial0ISR
     000000B0  _P3_0                              HardwareSerial0ISR
     000000B0  _PWM1_                             HardwareSerial0ISR
     000000B0  _RXD                               HardwareSerial0ISR
     000000B1  _GLOBAL_CFG                        HardwareSerial0ISR
     000000B1  _P3_1                              HardwareSerial0ISR
     000000B1  _PWM2_                             HardwareSerial0ISR
     000000B1  _TXD                               HardwareSerial0ISR
     000000B2  _AIN3                              HardwareSerial0ISR
     000000B2  _INT0                              HardwareSerial0ISR
     000000B2  _P3_2                              HardwareSerial0ISR
     000000B2  _TXD1_                             HardwareSerial0ISR
     000000B2  _VBUS1                             HardwareSerial0ISR
     000000B3  _INT1                              HardwareSerial0ISR
     000000B3  _P3_3                              HardwareSerial0ISR
     000000B4  _P3_4                              HardwareSerial0ISR
     000000B4  _PWM2                              HardwareSerial0ISR
     000000B4  _RXD1_                             HardwareSerial0ISR
     000000B4  _T0                                HardwareSerial0ISR
     000000B5  _P3_5                              HardwareSerial0ISR
     000000B5  _T1                                HardwareSerial0ISR
     000000B6  _P3_6                              HardwareSerial0ISR
     000000B6  _UDP                               HardwareSerial0ISR
     000000B7  _P3_7                              HardwareSerial0ISR
     000000B7  _UDM                               HardwareSerial0ISR
     000000B8  _IP                                HardwareSerial0ISR
     000000B8  _PX0                               HardwareSerial0ISR
     000000B9  _CLOCK_CFG                         HardwareSerial0ISR
     000000B9  _PT0                               HardwareSerial0ISR
     000000BA  _PX1                               HardwareSerial0ISR
     000000BB  _PT1                               HardwareSerial0ISR
     000000BC  _PS                                HardwareSerial0ISR
     000000BD  _PT2                               HardwareSerial0ISR
     000000BE  _PL_FLAG                           HardwareSerial0ISR
     000000BF  _PH_FLAG                           HardwareSerial0ISR
     000000C0  _SCON1                             HardwareSerial0ISR
     000000C0  _U1RI                              HardwareSerial0ISR
     000000C1  _SBUF1                             HardwareSerial0ISR
     000000C1  _U1TI                              HardwareSerial0ISR
     000000C2  _SBAUD1                            HardwareSerial0ISR
     000000C2  _U1RB8                             HardwareSerial0ISR
     000000C3  _TKEY_CTRL                         HardwareSerial0ISR
     000000C3  _U1TB8                             HardwareSerial0ISR
     000000C4  _TKEY_DATL                         HardwareSerial0ISR
     000000C4  _U1REN                             HardwareSerial0ISR
ASxxxx Linker V03.00 + NoICE + sdld,  page 7.
Hexadecimal  [32-Bits]

Area                                    Addr        Size        Decimal Bytes (Attributes)
--------------------------------        ----        ----        ------- ----- ------------
.  .ABS.                            00000000    00000000 =           0. bytes (ABS,CON)

      Value  Global                              Global Defined In Module
      -----  --------------------------------   ------------------------
     000000C5  _TKEY_DATH                         HardwareSerial0ISR
     000000C5  _U1SMOD                            HardwareSerial0ISR
     000000C6  _PIN_FUNC                          HardwareSerial0ISR
     000000C7  _GPIO_IE                           HardwareSerial0ISR
     000000C7  _U1SM0                             HardwareSerial0ISR
     000000C8  _CP_RL2                            HardwareSerial0ISR
     000000C8  _T2CON                             HardwareSerial0ISR
     000000C9  _C_T2                              HardwareSerial0ISR
     000000C9  _T2MOD                             HardwareSerial0ISR
     000000CA  _RCAP2L                            HardwareSerial0ISR
     000000CA  _TR2                               HardwareSerial0ISR
     000000CB  _EXEN2                             HardwareSerial0ISR
     000000CB  _RCAP2H                            HardwareSerial0ISR
     000000CC  _TCLK                              HardwareSerial0ISR
     000000CC  _TL2                               HardwareSerial0ISR
     000000CD  _RCLK                              HardwareSerial0ISR
     000000CD  _TH2                               HardwareSerial0ISR
     000000CE  _EXF2                              HardwareSerial0ISR
     000000CE  _T2CAP1L                           HardwareSerial0ISR
     000000CF  _CAP1F                             HardwareSerial0ISR
     000000CF  _T2CAP1H                           HardwareSerial0ISR
     000000CF  _TF2                               HardwareSerial0ISR
     000000D0  _P                                 HardwareSerial0ISR
     000000D0  _PSW                               HardwareSerial0ISR
     000000D1  _F1                                HardwareSerial0ISR
     000000D1  _UDEV_CTRL                         HardwareSerial0ISR
     000000D2  _OV                                HardwareSerial0ISR
     000000D2  _UEP1_CTRL                         HardwareSerial0ISR
     000000D3  _RS0                               HardwareSerial0ISR
     000000D3  _UEP1_T_LEN                        HardwareSerial0ISR
     000000D4  _RS1                               HardwareSerial0ISR
     000000D4  _UEP2_CTRL                         HardwareSerial0ISR
     000000D5  _F0                                HardwareSerial0ISR
     000000D5  _UEP2_T_LEN                        HardwareSerial0ISR
     000000D6  _AC                                HardwareSerial0ISR
     000000D6  _UEP3_CTRL                         HardwareSerial0ISR
     000000D7  _CY                                HardwareSerial0ISR
     000000D7  _UEP3_T_LEN                        HardwareSerial0ISR
     000000D8  _UIF_BUS_RST                       HardwareSerial0ISR
     000000D8  _UIF_DETECT                        HardwareSerial0ISR
     000000D8  _USB_INT_FG                        HardwareSerial0ISR
     000000D9  _UIF_TRANSFER                      HardwareSerial0ISR
     000000D9  _USB_INT_ST                        HardwareSerial0ISR
     000000DA  _UIF_SUSPEND                       HardwareSerial0ISR
     000000DA  _USB_MIS_ST                        HardwareSerial0ISR
     000000DB  _UIF_HST_SOF                       HardwareSerial0ISR
     000000DB  _USB_RX_LEN                        HardwareSerial0ISR
     000000DC  _UEP0_CTRL                         HardwareSerial0ISR
     000000DC  _UIF_FIFO_OV                       HardwareSerial0ISR
     000000DD  _UEP0_T_LEN                        HardwareSerial0ISR
     000000DD  _U_SIE_FREE                        HardwareSerial0ISR
ASxxxx Linker V03.00 + NoICE + sdld,  page 8.
Hexadecimal  [32-Bits]

Area                                    Addr        Size        Decimal Bytes (Attributes)
--------------------------------        ----        ----        ------- ----- ------------
.  .ABS.                            00000000    00000000 =           0. bytes (ABS,CON)

      Value  Global                              Global Defined In Module
      -----  --------------------------------   ------------------------
     000000DE  _UEP4_CTRL                         HardwareSerial0ISR
     000000DE  _U_TOG_OK                          HardwareSerial0ISR
     000000DF  _UEP4_T_LEN                        HardwareSerial0ISR
     000000DF  _U_IS_NAK                          HardwareSerial0ISR
     000000E0  _ACC                               HardwareSerial0ISR
     000000E1  _USB_INT_EN                        HardwareSerial0ISR
     000000E2  _USB_CTRL                          HardwareSerial0ISR
     000000E3  _USB_DEV_AD                        HardwareSerial0ISR
     000000E4  _UEP2_DMA_L                        HardwareSerial0ISR
     000000E5  _UEP2_DMA_H                        HardwareSerial0ISR
     000000E6  _UEP3_DMA_L                        HardwareSerial0ISR
     000000E7  _UEP3_DMA_H                        HardwareSerial0ISR
     000000E8  _IE_EX                             HardwareSerial0ISR
     000000E8  _IE_SPI0                           HardwareSerial0ISR
     000000E9  _IE_TKEY                           HardwareSerial0ISR
     000000E9  _IP_EX                             HardwareSerial0ISR
     000000EA  _IE_USB                            HardwareSerial0ISR
     000000EA  _UEP4_1_MOD                        HardwareSerial0ISR
     000000EB  _IE_ADC                            HardwareSerial0ISR
     000000EB  _UEP2_3_MOD                        HardwareSerial0ISR
     000000EC  _IE_UART1                          HardwareSerial0ISR
     000000EC  _UEP0_DMA_L                        HardwareSerial0ISR
     000000ED  _IE_PWMX                           HardwareSerial0ISR
     000000ED  _UEP0_DMA_H                        HardwareSerial0ISR
     000000EE  _IE_GPIO                           HardwareSerial0ISR
     000000EE  _UEP1_DMA_L                        HardwareSerial0ISR
     000000EF  _IE_WDOG                           HardwareSerial0ISR
     000000EF  _UEP1_DMA_H                        HardwareSerial0ISR
     000000F0  _B                                 HardwareSerial0ISR
     000000F5  _B_5                               _gptrget
     000000F6  _B_6                               _gptrget
     000000F7  _B_7                               _gptrget
     000000F8  _S0_R_FIFO                         HardwareSerial0ISR
     000000F8  _SPI0_STAT                         HardwareSerial0ISR
     000000F9  _SPI0_DATA                         HardwareSerial0ISR
     000000FA  _S0_T_FIFO                         HardwareSerial0ISR
     000000FA  _SPI0_CTRL                         HardwareSerial0ISR
     000000FB  _S0_FREE                           HardwareSerial0ISR
     000000FB  _SPI0_CK_SE                        HardwareSerial0ISR
     000000FC  _S0_IF_BYTE                        HardwareSerial0ISR
     000000FC  _SPI0_SETUP                        HardwareSerial0ISR
     000000FD  _S0_IF_FIRST                       HardwareSerial0ISR
     000000FE  _RESET_KEEP                        HardwareSerial0ISR
     000000FE  _S0_IF_OV                          HardwareSerial0ISR
     000000FF  _S0_FST_ACT                        HardwareSerial0ISR
     000000FF  _WDOG_COUNT                        HardwareSerial0ISR
     00008584  _ROM_ADDR                          HardwareSerial0ISR
     00008F8E  _ROM_DATA                          HardwareSerial0ISR
     0000C5C4  _TKEY_DAT                          HardwareSerial0ISR
     0000CBCA  _RCAP2                             HardwareSerial0ISR
     0000CDCC  _T2COUNT                           HardwareSerial0ISR
ASxxxx Linker V03.00 + NoICE + sdld,  page 9.
Hexadecimal  [32-Bits]

Area                                    Addr        Size        Decimal Bytes (Attributes)
--------------------------------        ----        ----        ------- ----- ------------
.  .ABS.                            00000000    00000000 =           0. bytes (ABS,CON)

      Value  Global                              Global Defined In Module
      -----  --------------------------------   ------------------------
     0000CFCE  _T2CAP1                            HardwareSerial0ISR
     0000E5E4  _UEP2_DMA                          HardwareSerial0ISR
     0000E7E6  _UEP3_DMA                          HardwareSerial0ISR
     0000EDEC  _UEP0_DMA                          HardwareSerial0ISR
     0000EFEE  _UEP1_DMA                          HardwareSerial0ISR

ASxxxx Linker V03.00 + NoICE + sdld,  page 10.
Hexadecimal  [32-Bits]

Area                                    Addr        Size        Decimal Bytes (Attributes)
--------------------------------        ----        ----        ------- ----- ------------
BSEG_BYTES                          00000020    00000001 =           1. bytes (REL,CON)

      Value  Global                              Global Defined In Module
      -----  --------------------------------   ------------------------
ASxxxx Linker V03.00 + NoICE + sdld,  page 11.
Hexadecimal  [32-Bits]

Area                                    Addr        Size        Decimal Bytes (Attributes)
--------------------------------        ----        ----        ------- ----- ------------
REG_BANK_0                          00000000    00000008 =           8. bytes (REL,OVR)

      Value  Global                              Global Defined In Module
      -----  --------------------------------   ------------------------
ASxxxx Linker V03.00 + NoICE + sdld,  page 12.
Hexadecimal  [32-Bits]

Area                                    Addr        Size        Decimal Bytes (Attributes)
--------------------------------        ----        ----        ------- ----- ------------
REG_BANK_1                          00000008    00000008 =           8. bytes (REL,OVR)

      Value  Global                              Global Defined In Module
      -----  --------------------------------   ------------------------
ASxxxx Linker V03.00 + NoICE + sdld,  page 13.
Hexadecimal  [32-Bits]

Area                                    Addr        Size        Decimal Bytes (Attributes)
--------------------------------        ----        ----        ------- ----- ------------
BIT_BANK                            00000021    00000001 =           1. bytes (REL,OVR)

      Value  Global                              Global Defined In Module
      -----  --------------------------------   ------------------------
ASxxxx Linker V03.00 + NoICE + sdld,  page 14.
Hexadecimal  [32-Bits]

Area                                    Addr        Size        Decimal Bytes (Attributes)
--------------------------------        ----        ----        ------- ----- ------------
DSEG                                00000000    00000080 =         128. bytes (REL,CON)

      Value  Global                              Global Defined In Module
      -----  --------------------------------   ------------------------
     00000022  _SetupLen                          USBhandler
     00000024  _SetupReq                          USBhandler
     00000025  _pDescr                            USBhandler
     00000033  _bp                                _bp

ASxxxx Linker V03.00 + NoICE + sdld,  page 15.
Hexadecimal  [32-Bits]

Area                                    Addr        Size        Decimal Bytes (Attributes)
--------------------------------        ----        ----        ------- ----- ------------
OSEG                                00000034    00000005 =           5. bytes (REL,OVR)

      Value  Global                              Global Defined In Module
      -----  --------------------------------   ------------------------
ASxxxx Linker V03.00 + NoICE + sdld,  page 16.
Hexadecimal  [32-Bits]

Area                                    Addr        Size        Decimal Bytes (Attributes)
--------------------------------        ----        ----        ------- ----- ------------
SSEG                                00000039    000000C7 =         199. bytes (REL,OVR)

      Value  Global                              Global Defined In Module
      -----  --------------------------------   ------------------------
     00000039  __start__stack                     main

ASxxxx Linker V03.00 + NoICE + sdld,  page 17.
Hexadecimal  [32-Bits]

Area                                    Addr        Size        Decimal Bytes (Attributes)
--------------------------------        ----        ----        ------- ----- ------------
XSEG                                0000010A    00000115 =         277. bytes (REL,CON,XDATA)

      Value  Global                              Global Defined In Module
      -----  --------------------------------   ------------------------
D:   0000010A  _LED_DATA                          AKA_Firmware_ino
D:   0000011C  _rgb_show_PARM_2                   AKA_Firmware_ino
D:   0000011D  _rgb_show_PARM_3                   AKA_Firmware_ino
D:   00000120  _ACCESS_CODE_CACHE                 AccessCode
D:   00000132  _pn532_packetbuffer                PN532
D:   00000172  _pn532_felica_cmd                  PN532
D:   00000181  _pn532_felica_data                 PN532
D:   00000197  _pn532_command                     PN532_HSU
D:   00000198  _pn532_writeCommand_PARM_2         PN532_HSU
D:   00000199  _pn532_writeCommand_PARM_3         PN532_HSU
D:   0000019C  _pn532_writeCommand_PARM_4         PN532_HSU
D:   000001A1  _pn532_readResponse_PARM_2         PN532_HSU
D:   000001A2  _pn532_readResponse_PARM_3         PN532_HSU
D:   000001BA  _pn532_receive_PARM_2              PN532_HSU
D:   000001BC  _pn532_receive_PARM_3              PN532_HSU
D:   000001C5  _UsbConfig                         USBhandler
D:   000001C6  _eeprom_write_byte_PARM_2          eeprom
D:   000001C7  ___memcpy_PARM_2                   __memcpy
D:   000001CA  ___memcpy_PARM_3                   __memcpy
D:   000001CF  _memset_PARM_2                     _memset
D:   000001D0  _memset_PARM_3                     _memset
D:   000001D2  __gptrput_PARM_2                   _gptrput
D:   000001D3  _serial1Initialized                HardwareSerial1
D:   000001D4  _Receive_Uart1_Buf                 HardwareSerial1ISR
D:   000001E4  _Transmit_Uart1_Buf                HardwareSerial1ISR
D:   000001F4  _memcmp_PARM_2                     _memcmp
D:   000001F7  _memcmp_PARM_3                     _memcmp
D:   000001FC  _attachInterrupt_PARM_2            WInterrupts
D:   000001FE  _attachInterrupt_PARM_3            WInterrupts
D:   000001FF  _Receive_Uart0_Buf                 HardwareSerial0ISR
D:   0000020F  _Transmit_Uart0_Buf                HardwareSerial0ISR

ASxxxx Linker V03.00 + NoICE + sdld,  page 18.
Hexadecimal  [32-Bits]

Area                                    Addr        Size        Decimal Bytes (Attributes)
--------------------------------        ----        ----        ------- ----- ------------
XISEG                               0000021F    0000001E =          30. bytes (REL,CON,XDATA)

      Value  Global                              Global Defined In Module
      -----  --------------------------------   ------------------------
D:   0000021F  _dummy_variable                    AKA_Firmware_ino
D:   00000221  _UpPoint3_Busy                     AKA_Firmware_ino
D:   00000222  _SYSTEM_MODE                       AKA_Firmware_ino
D:   00000223  _API_ASYNC_FLAG                    AKA_Firmware_ino
D:   00000224  _LineCoding                        USBCDC
D:   0000022B  _USBByteCountEP2                   USBCDC
D:   0000022C  _USBBufOutPointEP2                 USBCDC
D:   0000022D  _controlLineState                  USBCDC
D:   0000022E  _usbWritePointer                   USBCDC
D:   0000022F  _touchKeyHandler                   main
D:   00000231  _uart1_rx_buffer_head              HardwareSerial1ISR
D:   00000232  _uart1_rx_buffer_tail              HardwareSerial1ISR
D:   00000233  _uart1_tx_buffer_head              HardwareSerial1ISR
D:   00000234  _uart1_tx_buffer_tail              HardwareSerial1ISR
D:   00000235  _intFunc                           WInterrupts
D:   00000239  _uart0_rx_buffer_head              HardwareSerial0ISR
D:   0000023A  _uart0_rx_buffer_tail              HardwareSerial0ISR
D:   0000023B  _uart0_tx_buffer_head              HardwareSerial0ISR
D:   0000023C  _uart0_tx_buffer_tail              HardwareSerial0ISR

ASxxxx Linker V03.00 + NoICE + sdld,  page 19.
Hexadecimal  [32-Bits]

Area                                    Addr        Size        Decimal Bytes (Attributes)
--------------------------------        ----        ----        ------- ----- ------------
HOME                                00000000    0000006B =         107. bytes (REL,CON,CODE)

      Value  Global                              Global Defined In Module
      -----  --------------------------------   ------------------------
C:   00000066  __sdcc_program_startup             main
C:   00000069  __sdcc_call_dptr                   

ASxxxx Linker V03.00 + NoICE + sdld,  page 20.
Hexadecimal  [32-Bits]

Area                                    Addr        Size        Decimal Bytes (Attributes)
--------------------------------        ----        ----        ------- ----- ------------
GSINIT0                             0000006B    00000003 =           3. bytes (REL,CON,CODE)

      Value  Global                              Global Defined In Module
      -----  --------------------------------   ------------------------
C:   0000006B  __sdcc_gsinit_startup              

ASxxxx Linker V03.00 + NoICE + sdld,  page 21.
Hexadecimal  [32-Bits]

Area                                    Addr        Size        Decimal Bytes (Attributes)
--------------------------------        ----        ----        ------- ----- ------------
GSINIT2                             0000006E    0000000A =          10. bytes (REL,CON,CODE)

      Value  Global                              Global Defined In Module
      -----  --------------------------------   ------------------------
ASxxxx Linker V03.00 + NoICE + sdld,  page 22.
Hexadecimal  [32-Bits]

Area                                    Addr        Size        Decimal Bytes (Attributes)
--------------------------------        ----        ----        ------- ----- ------------
GSINIT3                             00000078    00000022 =          34. bytes (REL,CON,CODE)

      Value  Global                              Global Defined In Module
      -----  --------------------------------   ------------------------
C:   00000078  __mcs51_genXINIT                   

ASxxxx Linker V03.00 + NoICE + sdld,  page 23.
Hexadecimal  [32-Bits]

Area                                    Addr        Size        Decimal Bytes (Attributes)
--------------------------------        ----        ----        ------- ----- ------------
GSINIT4                             0000009A    0000002A =          42. bytes (REL,CON,CODE)

      Value  Global                              Global Defined In Module
      -----  --------------------------------   ------------------------
C:   0000009A  __mcs51_genRAMCLEAR                
C:   000000A0  __mcs51_genXRAMCLEAR               

ASxxxx Linker V03.00 + NoICE + sdld,  page 24.
Hexadecimal  [32-Bits]

Area                                    Addr        Size        Decimal Bytes (Attributes)
--------------------------------        ----        ----        ------- ----- ------------
GSINIT                              000000C4    00000014 =          20. bytes (REL,CON,CODE)

      Value  Global                              Global Defined In Module
      -----  --------------------------------   ------------------------
ASxxxx Linker V03.00 + NoICE + sdld,  page 25.
Hexadecimal  [32-Bits]

Area                                    Addr        Size        Decimal Bytes (Attributes)
--------------------------------        ----        ----        ------- ----- ------------
GSFINAL                             000000D8    00000004 =           4. bytes (REL,CON,CODE)

      Value  Global                              Global Defined In Module
      -----  --------------------------------   ------------------------
ASxxxx Linker V03.00 + NoICE + sdld,  page 26.
Hexadecimal  [32-Bits]

Area                                    Addr        Size        Decimal Bytes (Attributes)
--------------------------------        ----        ----        ------- ----- ------------
CSEG                                000000DC    0000240B =        9227. bytes (REL,CON,CODE)

      Value  Global                              Global Defined In Module
      -----  --------------------------------   ------------------------
C:   000000DC  _rgb_show                          AKA_Firmware_ino
C:   0000016F  _USB_EP3_IN                        AKA_Firmware_ino
C:   00000180  _USB_EP3_send                      AKA_Firmware_ino
C:   000001C3  _rebootToDFU                       AKA_Firmware_ino
C:   000001DC  _hid_loop                          AKA_Firmware_ino
C:   00000293  _cdc_loop                          AKA_Firmware_ino
C:   000002B4  _api_loop_sync                     AKA_Firmware_ino
C:   000003DB  _api_loop_async                    AKA_Firmware_ino
C:   0000070B  _USB_EP3_OUT                       AKA_Firmware_ino
C:   00000758  _setup                             AKA_Firmware_ino
C:   000007BF  _loop                              AKA_Firmware_ino
C:   00000808  _DECRYPT_ACCESSCODE                AccessCode
C:   000008DA  _pn532_SAMConfig                   PN532
C:   00000946  _pn532_setPassiveActivationRetri   PN532
C:   000009C0  _pn532_readPassiveTargetID         PN532
C:   00000A3C  _pn532_mifareclassic_Authenticat   PN532
C:   00000A9F  _pn532_mifareclassic_ReadDataBlo   PN532
C:   00000AFC  _pn532_mifareclassic_WriteDataBl   PN532
C:   00000B62  _pn532_felica_Polling              PN532
C:   00000BFE  _pn532_felica_ReadWithoutEncrypt   PN532
C:   00000CC8  _pn532_wakeup                      PN532_HSU
C:   00000D3D  _pn532_writeCommand                PN532_HSU
C:   00000ED8  _pn532_readResponse                PN532_HSU
C:   000010CD  _pn532_readAckFrame                PN532_HSU
C:   00001147  _pn532_receive                     PN532_HSU
C:   0000129A  _USBInit                           USBCDC
C:   000012A3  _resetCDCParameters                USBCDC
C:   000012AB  _setLineCodingHandler              USBCDC
C:   000012EB  _getLineCodingHandler              USBCDC
C:   00001316  _setControlLineStateHandler        USBCDC
C:   0000131D  _USBSerial_wait_UpPoint2BusyFlag   USBCDC
C:   00001348  _USBSerial                         USBCDC
C:   00001358  _USBSerial_flush                   USBCDC
C:   00001381  _USBSerial_write                   USBCDC
C:   000013CE  _USBSerial_available               USBCDC
C:   000013D5  _USBSerial_read                    USBCDC
C:   00001402  _USB_EP2_IN                        USBCDC
C:   00001410  _USB_EP2_OUT                       USBCDC
C:   0000142E  _USB_EP0_SETUP                     USBhandler
C:   00001848  _USB_EP0_IN                        USBhandler
C:   000018C1  _USB_EP0_OUT                       USBhandler
C:   000018E6  _USB_EP1_IN                        USBhandler
C:   000018F2  _USBInterrupt                      USBhandler
C:   000019D9  _USBDeviceCfg                      USBhandler
C:   000019F2  _USBDeviceIntCfg                   USBhandler
C:   00001A03  _USBDeviceEndPointCfg              USBhandler
C:   00001A42  _eeprom_write_byte                 eeprom
C:   00001A78  _eeprom_read_byte                  eeprom
C:   00001A88  _DeviceUSBInterrupt                main
C:   00001AC7  _Uart0_ISR                         main
ASxxxx Linker V03.00 + NoICE + sdld,  page 27.
Hexadecimal  [32-Bits]

Area                                    Addr        Size        Decimal Bytes (Attributes)
--------------------------------        ----        ----        ------- ----- ------------
CSEG                                000000DC    0000240B =        9227. bytes (REL,CON,CODE)

      Value  Global                              Global Defined In Module
      -----  --------------------------------   ------------------------
C:   00001B13  _Uart1_ISR                         main
C:   00001B5F  _INT0_ISR                          main
C:   00001BB2  _INT1_ISR                          main
C:   00001C05  _TOUCHKEY_ISR                      main
C:   00001C59  _main                              main
C:   00001C64  ___sdcc_external_startup           main
C:   00001C68  ___memcpy                          __memcpy
C:   00001CDC  _memset                            _memset
C:   00001D04  _Timer0Interrupt                   wiring
C:   00001D1D  _micros                            wiring
C:   00001D84  _millis                            wiring
C:   00001DC1  _delay                             wiring
C:   00001E72  _delayMicroseconds                 wiring
C:   00001EAD  _init                              wiring
C:   00001EE2  __gptrput                          _gptrput
C:   00001EFD  _Serial1                           HardwareSerial1
C:   00001F04  _Serial1_begin                     HardwareSerial1
C:   00001F3B  _Serial1_write                     HardwareSerial1
C:   00001FCA  _Serial1_flush                     HardwareSerial1
C:   00001FCE  _Serial1_available                 HardwareSerial1
C:   00001FE4  _Serial1_read                      HardwareSerial1
C:   00002017  __mulint                           _mulint
C:   000020B5  _uart1IntRxHandler                 HardwareSerial1ISR
C:   000020F5  _uart1IntTxHandler                 HardwareSerial1ISR
C:   00002143  _GPIOInterrupt                     weakOverrideGPIO
C:   00002145  _memcmp                            _memcmp
C:   00002224  _Timer2Interrupt                   weakOverrideTimer2
C:   00002226  __divulong                         _divulong
C:   000022B0  _neopixel_show_long_P1_5           optionalLink_WS2812_P1_5
C:   000022D4  _nothing                           WInterrupts
C:   000022D5  _attachInterrupt                   WInterrupts
C:   0000231B  _detachInterrupt                   WInterrupts
C:   0000234C  __gptrget                          _gptrget
C:   00002368  __modsint                          _modsint
C:   000023D6  __moduint                          _moduint
C:   00002455  _uart0IntRxHandler                 HardwareSerial0ISR
C:   00002495  _uart0IntTxHandler                 HardwareSerial0ISR
C:   000024E3  __sdcc_external_startup            _startup

ASxxxx Linker V03.00 + NoICE + sdld,  page 28.
Hexadecimal  [32-Bits]

Area                                    Addr        Size        Decimal Bytes (Attributes)
--------------------------------        ----        ----        ------- ----- ------------
CONST                               000024E7    00000A1A =        2586. bytes (REL,CON,CODE)

      Value  Global                              Global Defined In Module
      -----  --------------------------------   ------------------------
C:   000024E7  _S_BOX_INV                         AccessCode
C:   00002DE7  _DeviceDescriptor                  USBconstant
C:   00002DF9  _ConfigurationDescriptor           USBconstant
C:   00002E5F  _LanguageDescriptor                USBconstant
C:   00002E63  _SerialDescriptor                  USBconstant
C:   00002E71  _ProductDescriptor                 USBconstant
C:   00002E87  _CDCDescriptor                     USBconstant
C:   00002E9F  _ManufacturerDescriptor            USBconstant
C:   00002EAD  _ReportDescriptor                  USBconstant
ASxxxx Linker V03.00 + NoICE + sdld,  page 29.
Hexadecimal  [32-Bits]

Area                                    Addr        Size        Decimal Bytes (Attributes)
--------------------------------        ----        ----        ------- ----- ------------
XINIT                               00002F01    0000001E =          30. bytes (REL,CON,CODE)

      Value  Global                              Global Defined In Module
      -----  --------------------------------   ------------------------
ASxxxx Linker V03.00 + NoICE + sdld,  page 30.

Files Linked                              [ module(s) ]

C:\Users\Amano\AppData\Local\Temp\arduino\sketches\8AE8B7E0753243A3EF5DA44F2AB35B7F\sketch\AKA_Firmware.ino.cpp.rel
                                          [  ]
C:\Users\Amano\AppData\Local\Temp\arduino\sketches\8AE8B7E0753243A3EF5DA44F2AB35B7F\sketch\AccessCode.c.rel
                                          [  ]
C:\Users\Amano\AppData\Local\Temp\arduino\sketches\8AE8B7E0753243A3EF5DA44F2AB35B7F\sketch\PN532.c.rel
                                          [  ]
C:\Users\Amano\AppData\Local\Temp\arduino\sketches\8AE8B7E0753243A3EF5DA44F2AB35B7F\sketch\PN532_HSU.c.rel
                                          [  ]
C:\Users\Amano\AppData\Local\Temp\arduino\sketches\8AE8B7E0753243A3EF5DA44F2AB35B7F\sketch\USBCDC.c.rel
                                          [  ]
C:\Users\Amano\AppData\Local\Temp\arduino\sketches\8AE8B7E0753243A3EF5DA44F2AB35B7F\sketch\USBconstant.c.rel
                                          [  ]
C:\Users\Amano\AppData\Local\Temp\arduino\sketches\8AE8B7E0753243A3EF5DA44F2AB35B7F\sketch\USBhandler.c.rel
                                          [  ]
C:\Users\Amano\AppData\Local\Temp\arduino\sketches\8AE8B7E0753243A3EF5DA44F2AB35B7F\libraries\WS2812\WS2812.c.rel
                                          [  ]


Libraries Linked                          [ object file ]

C:\Users\Amano\AppData\Local\Temp\arduino\sketches\8AE8B7E0753243A3EF5DA44F2AB35B7F/..\..\cores\a3604065082560a74f3b0edabf81be2d\core.lib
                                          [ eeprom.c.rel ]
C:\Users\Amano\AppData\Local\Temp\arduino\sketches\8AE8B7E0753243A3EF5DA44F2AB35B7F/..\..\cores\a3604065082560a74f3b0edabf81be2d\core.lib
                                          [ main.c.rel ]
C:\Users\Amano\AppData\Local\Arduino15\packages\CH55xDuino\tools\sdcc\build.13407_4/lib/large_int_calc_stack_auto/mcs51.lib
                                          [ crtclear.rel ]
C:\Users\Amano\AppData\Local\Arduino15\packages\CH55xDuino\tools\sdcc\build.13407_4/lib/large_int_calc_stack_auto/libsdcc.lib
                                          [ __memcpy.rel ]
C:\Users\Amano\AppData\Local\Arduino15\packages\CH55xDuino\tools\sdcc\build.13407_4/lib/large_int_calc_stack_auto/libsdcc.lib
                                          [ _memset.rel ]
C:\Users\Amano\AppData\Local\Arduino15\packages\CH55xDuino\tools\sdcc\build.13407_4/lib/large_int_calc_stack_auto/mcs51.lib
                                          [ crtxinit.rel ]
C:\Users\Amano\AppData\Local\Temp\arduino\sketches\8AE8B7E0753243A3EF5DA44F2AB35B7F/..\..\cores\a3604065082560a74f3b0edabf81be2d\core.lib
                                          [ wiring.c.rel ]
C:\Users\Amano\AppData\Local\Arduino15\packages\CH55xDuino\tools\sdcc\build.13407_4/lib/large_int_calc_stack_auto/libsdcc.lib
                                          [ _gptrput.rel ]
C:\Users\Amano\AppData\Local\Temp\arduino\sketches\8AE8B7E0753243A3EF5DA44F2AB35B7F/..\..\cores\a3604065082560a74f3b0edabf81be2d\core.lib
                                          [ HardwareSerial1.c.rel ]
C:\Users\Amano\AppData\Local\Arduino15\packages\CH55xDuino\tools\sdcc\build.13407_4/lib/large_int_calc_stack_auto/libint.lib
                                          [ _mulint.rel ]
C:\Users\Amano\AppData\Local\Temp\arduino\sketches\8AE8B7E0753243A3EF5DA44F2AB35B7F/..\..\cores\a3604065082560a74f3b0edabf81be2d\core.lib
                                          [ HardwareSerial1ISR.c.rel ]
C:\Users\Amano\AppData\Local\Temp\arduino\sketches\8AE8B7E0753243A3EF5DA44F2AB35B7F/..\..\cores\a3604065082560a74f3b0edabf81be2d\core.lib
                                          [ weakOverrideGPIO.c.rel ]
C:\Users\Amano\AppData\Local\Arduino15\packages\CH55xDuino\tools\sdcc\build.13407_4/lib/large_int_calc_stack_auto/libsdcc.lib
                                          [ _memcmp.rel ]
C:\Users\Amano\AppData\Local\Temp\arduino\sketches\8AE8B7E0753243A3EF5DA44F2AB35B7F/..\..\cores\a3604065082560a74f3b0edabf81be2d\core.lib
                                          [ weakOverrideTimer2.c.rel ]
C:\Users\Amano\AppData\Local\Arduino15\packages\CH55xDuino\tools\sdcc\build.13407_4/lib/large_int_calc_stack_auto/mcs51.lib
                                          [ crtxclear.rel ]
C:\Users\Amano\AppData\Local\Arduino15\packages\CH55xDuino\tools\sdcc\build.13407_4/lib/large_int_calc_stack_auto/liblong.lib
                                          [ _divulong.rel ]
C:\Users\Amano\AppData\Local\Temp\arduino\sketches\8AE8B7E0753243A3EF5DA44F2AB35B7F/optionalLink.lib
                                          [ optionalLink_WS2812_P1_5.c.rel ]
C:\Users\Amano\AppData\Local\Arduino15\packages\CH55xDuino\tools\sdcc\build.13407_4/lib/large_int_calc_stack_auto/mcs51.lib
                                          [ crtcall.rel ]
C:\Users\Amano\AppData\Local\Arduino15\packages\CH55xDuino\tools\sdcc\build.13407_4/lib/large_int_calc_stack_auto/libsdcc.lib
                                          [ _bp.rel ]
C:\Users\Amano\AppData\Local\Arduino15\packages\CH55xDuino\tools\sdcc\build.13407_4/lib/large_int_calc_stack_auto/mcs51.lib
                                          [ crtpagesfr.rel ]
C:\Users\Amano\AppData\Local\Temp\arduino\sketches\8AE8B7E0753243A3EF5DA44F2AB35B7F/..\..\cores\a3604065082560a74f3b0edabf81be2d\core.lib
                                          [ WInterrupts.c.rel ]
C:\Users\Amano\AppData\Local\Arduino15\packages\CH55xDuino\tools\sdcc\build.13407_4/lib/large_int_calc_stack_auto/mcs51.lib
                                          [ crtstart.rel ]
C:\Users\Amano\AppData\Local\Arduino15\packages\CH55xDuino\tools\sdcc\build.13407_4/lib/large_int_calc_stack_auto/libsdcc.lib
                                          [ _gptrget.rel ]
C:\Users\Amano\AppData\Local\Arduino15\packages\CH55xDuino\tools\sdcc\build.13407_4/lib/large_int_calc_stack_auto/libint.lib
                                          [ _modsint.rel ]
C:\Users\Amano\AppData\Local\Arduino15\packages\CH55xDuino\tools\sdcc\build.13407_4/lib/large_int_calc_stack_auto/libint.lib
                                          [ _moduint.rel ]
C:\Users\Amano\AppData\Local\Temp\arduino\sketches\8AE8B7E0753243A3EF5DA44F2AB35B7F/..\..\cores\a3604065082560a74f3b0edabf81be2d\core.lib
                                          [ HardwareSerial0ISR.c.rel ]
C:\Users\Amano\AppData\Local\Arduino15\packages\CH55xDuino\tools\sdcc\build.13407_4/lib/large_int_calc_stack_auto/libsdcc.lib
                                          [ _startup.rel ]

ASxxxx Linker V03.00 + NoICE + sdld,  page 31.

User Base Address Definitions

HOME = 0x0000
XSEG = 0x010a
PSEG = 0x010a
ISEG = 0x0000
BSEG = 0x0000

